target datalayout = "e-m:e-p270:32:32-p271:32:32-p272:64:64-i64:64-i128:128-f80:128-n8:16:32:64-S128"
target triple = "x86_64-pc-linux-gnu"

%"class.clang::QualType" = type { %"class.llvm::PointerIntPair" }
%"class.llvm::PointerIntPair" = type { %"struct.llvm::detail::PunnedPointer" }
%"struct.llvm::detail::PunnedPointer" = type { [8 x i8] }
%"class.clang::APValue" = type { i32, [4 x i8], %"struct.llvm::AlignedCharArrayUnion" }
%"struct.llvm::AlignedCharArrayUnion" = type { [64 x i8] }
%"class.clang::ActionResult" = type { i64 }

; Function Attrs: mustprogress nounwind uwtable
define linkonce_odr hidden void @_ZN5clang7APValueD2Ev(ptr noundef nonnull align 8 dereferenceable(72) %0) unnamed_addr #0 comdat align 2 {
  %2 = alloca ptr, align 8
  store ptr %0, ptr %2, align 8
  %3 = load ptr, ptr %2, align 8
  %4 = getelementptr inbounds nuw %"class.clang::APValue", ptr %3, i32 0, i32 0
  %5 = load i32, ptr %4, align 8
  %6 = icmp ne i32 %5, 0
  br i1 %6, label %7, label %12

7:                                                ; preds = %1
  %8 = getelementptr inbounds nuw %"class.clang::APValue", ptr %3, i32 0, i32 0
  %9 = load i32, ptr %8, align 8
  %10 = icmp ne i32 %9, 1
  br i1 %10, label %11, label %12

11:                                               ; preds = %7
  call void @_ZN5clang7APValue24DestroyDataAndMakeUninitEv(ptr noundef nonnull align 8 dereferenceable(72) %3)
  br label %12

12:                                               ; preds = %11, %7, %1
  ret void
}

; Function Attrs: mustprogress nounwind uwtable
define linkonce_odr hidden void @_ZN5clang7APValueC2Ev(ptr noundef nonnull align 8 dereferenceable(72) %0) unnamed_addr #0 comdat align 2 {
  %2 = alloca ptr, align 8
  store ptr %0, ptr %2, align 8
  %3 = load ptr, ptr %2, align 8
  %4 = getelementptr inbounds nuw %"class.clang::APValue", ptr %3, i32 0, i32 0
  store i32 0, ptr %4, align 8
  ret void
}

; Function Attrs: mustprogress nounwind uwtable
define dso_local i64 @_ZN5clang4Sema32BuildConvertedConstantExpressionEPNS_4ExprENS_8QualTypeENS0_7CCEKindEPNS_9NamedDeclE(ptr noundef nonnull align 8 dereferenceable(17560) %0, ptr noundef %1, i64 %2, i32 noundef %3, ptr noundef %4) #0 align 2 {
  %6 = alloca %"class.clang::ActionResult", align 8
  %7 = alloca %"class.clang::QualType", align 8
  %8 = alloca ptr, align 8
  %9 = alloca ptr, align 8
  %10 = alloca i32, align 4
  %11 = alloca ptr, align 8
  %12 = alloca %"class.clang::APValue", align 8
  %13 = alloca %"class.clang::QualType", align 8
  %14 = getelementptr inbounds nuw %"class.clang::QualType", ptr %7, i32 0, i32 0
  %15 = getelementptr inbounds nuw %"class.llvm::PointerIntPair", ptr %14, i32 0, i32 0
  %16 = getelementptr inbounds nuw %"struct.llvm::detail::PunnedPointer", ptr %15, i32 0, i32 0
  store i64 %2, ptr %16, align 8
  store ptr %0, ptr %8, align 8
  store ptr %1, ptr %9, align 8
  store i32 %3, ptr %10, align 4
  store ptr %4, ptr %11, align 8
  %17 = load ptr, ptr %8, align 8
  call void @_ZN5clang7APValueC2Ev(ptr noundef nonnull align 8 dereferenceable(72) %12)
  %18 = load ptr, ptr %9, align 8
  call void @llvm.memcpy.p0.p0.i64(ptr align 8 %13, ptr align 8 %7, i64 8, i1 false)
  %19 = load i32, ptr %10, align 4
  %20 = load ptr, ptr %11, align 8
  %21 = getelementptr inbounds nuw %"class.clang::QualType", ptr %13, i32 0, i32 0
  %22 = getelementptr inbounds nuw %"class.llvm::PointerIntPair", ptr %21, i32 0, i32 0
  %23 = getelementptr inbounds nuw %"struct.llvm::detail::PunnedPointer", ptr %22, i32 0, i32 0
  %24 = load i64, ptr %23, align 8
  %25 = call i64 @_ZL32BuildConvertedConstantExpressionRN5clang4SemaEPNS_4ExprENS_8QualTypeENS0_7CCEKindEPNS_9NamedDeclERNS_7APValueE(ptr noundef nonnull align 8 dereferenceable(17560) %17, ptr noundef %18, i64 %24, i32 noundef %19, ptr noundef %20, ptr noundef nonnull align 8 dereferenceable(72) %12)
  %26 = getelementptr inbounds nuw %"class.clang::ActionResult", ptr %6, i32 0, i32 0
  store i64 %25, ptr %26, align 8
  call void @_ZN5clang7APValueD2Ev(ptr noundef nonnull align 8 dereferenceable(72) %12) #16
  %27 = getelementptr inbounds nuw %"class.clang::ActionResult", ptr %6, i32 0, i32 0
  %28 = load i64, ptr %27, align 8
  ret i64 %28
}