; Function Attrs: mustprogress nounwind uwtable
define dso_local i64 @_ZN5clang4Sema32BuildConvertedConstantExpressionEPNS_4ExprENS_8QualTypeENS0_7CCEKindEPNS_9NamedDeclE(ptr noundef nonnull align 8 dereferenceable(17560) %0, ptr noundef %1, i64 %2, i32 noundef %3, ptr noundef %4) local_unnamed_addr #4 align 2 {
  %6 = alloca %"class.clang::APValue", align 8
  store i32 0, ptr %6, align 8
  %7 = call fastcc i64 @_ZL32BuildConvertedConstantExpressionRN5clang4SemaEPNS_4ExprENS_8QualTypeENS0_7CCEKindEPNS_9NamedDeclERNS_7APValueE(ptr noundef nonnull align 8 dereferenceable(17560) %0, ptr noundef %1, i64 %2, i32 noundef %3, ptr noundef %4, ptr noundef nonnull align 8 dereferenceable(72) %6)
  %8 = load i32, ptr %6, align 8
  %switch.i = icmp ult i32 %8, 2
  br i1 %switch.i, label %_ZN5clang7APValueD2Ev.exit, label %9

9:                                                ; preds = %5
  call void @_ZN5clang7APValue24DestroyDataAndMakeUninitEv(ptr noundef nonnull align 8 dereferenceable(72) %6) #26
  br label %_ZN5clang7APValueD2Ev.exit

_ZN5clang7APValueD2Ev.exit:                       ; preds = %5, %9
  ret i64 %7
}